(dp0
Vtagprogress
p1
(dp2
S'/home/christof/libs/unsorted_music'
p3
(lp4
S'/home/christof/libs/unsorted_music/musik/Musik Backup'
p5
aS'/home/christof/libs/unsorted_music/musik/Musik Backup/(2000)Tokyo Ska Paradise Orchestra - Full Tension Beaters'
p6
aS'/home/christof/libs/unsorted_music/musik/Musik Backup/(Eminem)/Unbekanntes Album'
p7
aS'/home/christof/libs/unsorted_music/musik/Musik Backup/, \xc3\x82\xc2\xa3\xc3\x83\xc2\xaf  \xc3\x83\xc2\x8b\xc3\xa2\xc2\x80\xc2\x94RK%\xc3\x83\xc2\xb5\xc3\x83\xc2\xb0\xc3\x83\xc2\x9fy\xc3\x83\xc2\x99\xc3\xa2\xc2\x80\xc2\xba\xc3\x82\xc2\xbb\xc3\x82\xc2\xb0\xc3\xa2\xc2\x80\xc2\xa6{  \xc3\x85\xc2\xa1o\xc3\x82\xc2\xbc\xc3\x83\xc2\xa8\xc3\x83\xc2\xa6\xc3\x83\xc2\x8a/\xc3\x82\xc2\xa4 \xc3\x83\xc2\x98\xc3\x8b\xc2\x86\xc3\x83\xc2\x962\xc3\x83\xc2\x80\xc3\x82\xc2\xac'
p8
aS'/home/christof/libs/unsorted_music/musik/Musik Backup/-'
p9
aS'/home/christof/libs/unsorted_music/musik/Musik Backup/- Hands on'
p10
aS'/home/christof/libs/unsorted_music/musik/Musik Backup/- Monsters In The Closet'
p11
aS'/home/christof/libs/unsorted_music/musik/Musik Backup/- Overcast'
p12
aS'/home/christof/libs/unsorted_music/musik/Musik Backup/- The Lost Live Cuts'
p13
aS'/home/christof/libs/unsorted_music/musik/Musik Backup/- Until The End Of Time'
p14
aS'/home/christof/libs/unsorted_music/musik/Musik Backup/-= 2Pac - Death Row Records Greatest Hits Vol 2 - 2CD - 2003 =-'
p15
aS'/home/christof/libs/unsorted_music/musik/Musik Backup/006 VA - Funky House Classics - Ministry Of Sound'
p16
aS'/home/christof/libs/unsorted_music/musik/Musik Backup/012 Beatport Selection (10.10.2010)'
p17
aS'/home/christof/libs/unsorted_music/musik/Musik Backup/028 Top10 Progressive House (07.11.2010)'
p18
aS'/home/christof/libs/unsorted_music/musik/Musik Backup/029 Top10 Techno (12.11.2010)'
p19
aS'/home/christof/libs/unsorted_music/musik/Musik Backup/030 Top 10 Electro House (14.11.10)'
p20
aS'/home/christof/libs/unsorted_music/musik/Musik Backup/1995 - 100% And Rising'
p21
aS'/home/christof/libs/unsorted_music/musik/Musik Backup/2 Pac - San Andreas'
p22
aS'/home/christof/libs/unsorted_music/musik/Musik Backup/2006 - Fatboy Slim - The Greatest Hits - Why Try Harder'
p23
aS'/home/christof/libs/unsorted_music/musik/Musik Backup/2Pac - All Eyez On Me (Book 1)'
p24
aS'/home/christof/libs/unsorted_music/musik/Musik Backup/2pac & Outlawz/Unbekanntes Album'
p25
aS'/home/christof/libs/unsorted_music/musik/Musik Backup/2pac/#1277476'
p26
assVtaghistory
p27
c__builtin__
set
p28
((lp29
(S'/home/christof/libs/unsorted_music/musik/Musik Backup/Mojo Club/Vol. 5 - Sunshine of your love'
p30
tp31
a(S'/home/christof/libs/Downloads/THE SEA AND CAKE - DISCOGRAPHY [CHANNEL NEO]/[2003] One Bedroom'
p32
tp33
a(S'/home/christof/libs/Downloads/Lack of Afro - This Time (2011)'
p34
tp35
a(S'/home/christof/libs/Downloads/Morphine/1995 - Yes'
p36
tp37
a(S'/home/christof/libs/Downloads/Nick Drake From CDs/Bryter Layter'
p38
tp39
a(S'/home/christof/libs/Downloads/[!] Matthew Herbert [FLAC]/2012 Doctor Rockit - The Unnecessary History Of Doctor Rockit (Accidental [AC09CDD]) - WEB'
p40
tp41
a(S'/home/christof/libs/unsorted_music/musik/Musik Backup/(Eminem)/Unbekanntes Album'
p42
tp43
a(S'/home/christof/libs/Downloads/Broken Flowers (2005)'
p44
tp45
a(S"/home/christof/libs/Downloads/LARRY LEVAN -- THE DEFINITIVE SALSOUL MIXES '78-'83/The Definitive Salsoul Mixes - Disc 1"
p46
S"/home/christof/libs/Downloads/LARRY LEVAN -- THE DEFINITIVE SALSOUL MIXES '78-'83/The Definitive Salsoul Mixes - Disc 2"
p47
tp48
a(S'/home/christof/libs/Downloads/GusGus/Bonus'
p49
tp50
a(S'/home/christof/libs/Downloads/[!] Matthew Herbert [FLAC]/2011 Matthew Herbert - One Pig (Accidental [AC48CD])'
p51
tp52
a(S'/home/christof/libs/Downloads/compulsive gamblers/live & deadly in memphis & chicago'
p53
tp54
a(S'/home/christof/libs/Downloads/[!] Matthew Herbert [FLAC]/2006 Herbert - 100 Lbs (Studio !K7 [!K7209CD])'
p55
S'/home/christof/libs/Downloads/[!] Matthew Herbert [FLAC]/2006 Herbert - 100 Lbs (Studio !K7 [!K7209CD])/CD1 100 Lbs'
p56
S'/home/christof/libs/Downloads/[!] Matthew Herbert [FLAC]/2006 Herbert - 100 Lbs (Studio !K7 [!K7209CD])/CD2 Bonus CD'
p57
tp58
a(S'/home/christof/libs/Downloads/Medeski, Martin & Wood - Friday Afternoon In The Universe'
p59
tp60
a(S'/home/christof/libs/Downloads/Bonobo/Days to Come Disc 1'
p61
S'/home/christof/libs/Downloads/Bonobo/Days to Come Disc 2'
p62
tp63
a(S'/home/christof/libs/unsorted_music/musik/Musik Backup/012 Beatport Selection (10.10.2010)'
p64
tp65
a(S"/home/christof/libs/Downloads/Lee 'Scratch' Perry & The Upsetters/Super Ape"
p66
tp67
a(S'/home/christof/libs/Downloads/howl_album'
p68
tp69
a(S'/home/christof/libs/unsorted_music/musik/Musik Backup/2pac & Outlawz/Unbekanntes Album'
p70
tp71
a(S'/home/christof/libs/Downloads/The Beatles - Revolver'
p72
tp73
a(S'/home/christof/libs/Downloads/GusGus/GusGus vs.T-World (4AD) [2000]'
p74
tp75
a(S'/home/christof/libs/Downloads/[!] Matthew Herbert [FLAC]/1998 Wishmountain - Wishmountainisdead (Antiphon \xe2\x80\x8e[ANTICD01])'
p76
tp77
a(S'/home/christof/libs/Downloads/The West Coast Pop Art Experimental Band-Vol. 1-3-/The West Coast Pop Art Experimental Band-Vol 3-1968'
p78
tp79
a(S'/home/christof/libs/Downloads/GusGus/GusGus - 24_7 [2009]'
p80
tp81
a(S'/home/christof/libs/Downloads/The West Coast Pop Art Experimental Band-Vol. 1-3-/The West Coast Pop Art Experimental Band-Vol 2-1967'
p82
tp83
a(S'/home/christof/libs/Downloads/Burial - Untrue'
p84
tp85
a(S'/home/christof/libs/Downloads/midland_placement_remixes/Midland/Placement Remixes'
p86
tp87
a(S'/home/christof/libs/Downloads/[!] Matthew Herbert [FLAC]/2000 Doctor Rockit - Indoor Fireworks (Lifelike \xe2\x80\x8e[LL10CD])'
p88
tp89
a(S'/home/christof/libs/Downloads/[!] Matthew Herbert [FLAC]/2000 Matthew Herbert - Globus Mix Vol. 5 - Letsallmakemistakes (Tresor [Tresor. 157])'
p90
tp91
a(S'/home/christof/libs/Downloads/GusGus/GusGus - Attention [2002]'
p92
tp93
a(S'/home/christof/libs/Downloads/Bonobo - Black Sands [mp3-320-2010]'
p94
tp95
a(S'/home/christof/libs/Downloads/Morphine/1997 - Like Swimming'
p96
tp97
a(S'/home/christof/libs/Downloads/GusGus/GusGus - David [2004]/Bonus'
p98
tp99
a(S'/home/christof/libs/unsorted_music/musik/Musik Backup/-'
p100
tp101
a(S'/home/christof/libs/Downloads/Lulu Rouge - The Song Is in the Drum 2013 320kbps CBR MP3 [VX] [P2PDL]'
p102
tp103
a(S"/home/christof/libs/unsorted_music/musik/Musik Backup/james brown - mutha's nature (1977)"
p104
tp105
a(S'/home/christof/libs/Downloads/11 - My Mission.mp3'
p106
tp107
a(S'/home/christof/libs/Downloads/GusGus/GusGus - Forever [2007]'
p108
tp109
a(S'/home/christof/libs/unsorted_music/musik/Musik Backup'
p110
tp111
a(S'/home/christof/libs/Downloads/erased_tapes_collection'
p112
tp113
a(S'/home/christof/libs/Downloads/Massive Attack/Blue Lines'
p114
tp115
a(S'/home/christof/libs/unsorted_music/musik/Musik Backup/Mojo Club/Vol. 6 - Summer in the city'
p116
tp117
a(S'/home/christof/libs/Downloads/Blaze/Lovelee Dae Bicep Remixes'
p118
tp119
a(S'/home/christof/libs/Downloads/THE SEA AND CAKE - DISCOGRAPHY [CHANNEL NEO]/[2008] Car Alarm'
p120
tp121
a(S'/home/christof/libs/Downloads/Massive Attack/Mezzanine'
p122
tp123
a(S'/home/christof/libs/Downloads/[!] Matthew Herbert [FLAC]/2012 Wishmountain - Tesco (Accidental [AC58CDD]) - WEB'
p124
tp125
a(S'/home/christof/libs/Downloads/[!] Matthew Herbert [FLAC]/1996 Doctor Rockit \xe2\x80\x8e- The Music Of Sound (Clear [CLR424CD])'
p126
tp127
a(S'/home/christof/libs/unsorted_music/musik/Musik Backup/Mojo Club/Vol. 10 - Love power'
p128
tp129
a(S'/home/christof/libs/Downloads/GusGus/GusGus - Add This Song [2009]'
p130
tp131
a(S'/home/christof/libs/Downloads/Bonobo/Animal Magic'
p132
tp133
a(S'/home/christof/libs/unsorted_music/musik/Musik Backup/Mojo Club/Vol. 7 - Give my your love'
p134
tp135
a(S'/home/christof/libs/Downloads/Bonobo - The North Borders 2013 Electronic 320kbps CBR MP3 [VX]'
p136
tp137
a(S'/home/christof/libs/Downloads/compulsive gamblers/bluff city'
p138
tp139
a(S'/home/christof/libs/unsorted_music/musik/Musik Backup/- Hands on'
p140
tp141
a(S'/home/christof/libs/Downloads/[!] Matthew Herbert [FLAC]/2001 Herbert - Bodily Functions (Studio !K7 [!K7097CD])'
p142
tp143
a(S'/home/christof/libs/unsorted_music/musik/Musik Backup/Mojo Club/Mojo Club Dancefloor Jazz Vol. 13 (If Yo'
p144
tp145
a(S'/home/christof/libs/Downloads/Johnny Guitar Watson - The Very Best Of Johnny Guitar Watson (1981) 320 vtwin88cube'
p146
tp147
a(S'/home/christof/libs/unsorted_music/musik/Musik Backup/Mojo Club/Vol. 1'
p148
tp149
a(S'/home/christof/libs/unsorted_music/musik/Musik Backup/Mojo Club/Vol. 3 - Work to do'
p150
tp151
a(S'/home/christof/libs/Downloads/Lack Of Afro - Press On (Freestyle) 2007'
p152
tp153
a(S'/home/christof/libs/Downloads/THE SEA AND CAKE - DISCOGRAPHY [CHANNEL NEO]/[2000] Oui'
p154
tp155
a(S'/home/christof/libs/unsorted_music/musik/Musik Backup/- Until The End Of Time'
p156
tp157
a(S'/home/christof/libs/Downloads/Medeski, Martin & Wood - Notes From The Underground[APE- Lossless]'
p158
tp159
a(S'/home/christof/libs/Downloads/Nick Drake From CDs/Time Of No Reply'
p160
tp161
a(S'/home/christof/libs/Downloads/THE SEA AND CAKE - DISCOGRAPHY [CHANNEL NEO]/[2011] The Moonlight Butterfly'
p162
tp163
a(S'/home/christof/libs/Downloads/jakob_korn_she_ep'
p164
tp165
a(S'/home/christof/libs/Downloads/THE SEA AND CAKE - DISCOGRAPHY [CHANNEL NEO]/[1995] The Biz'
p166
tp167
a(S'/home/christof/libs/unsorted_music/musik/Musik Backup/2pac/#1277476'
p168
tp169
a(S'/home/christof/libs/Downloads/GusGus/GusGus - Polydistortion [1997]/Polydistortion'
p170
tp171
a(S'/home/christof/libs/Downloads/THE SEA AND CAKE - DISCOGRAPHY [CHANNEL NEO]/[1997] The Fawn'
p172
tp173
a(S'/home/christof/libs/Downloads/THE SEA AND CAKE - DISCOGRAPHY [CHANNEL NEO]/[2007] Everybody'
p174
tp175
a(S'/home/christof/libs/Downloads/THE SEA AND CAKE - DISCOGRAPHY [CHANNEL NEO]/[2003] Glass [EP]'
p176
tp177
a(S'/home/christof/libs/Downloads/GusGus/GusGus - This Is Normal (4AD 1999)'
p178
tp179
a(S'/home/christof/libs/Downloads/Massive Attack/100th Window'
p180
tp181
a(S'/home/christof/libs/Downloads/Massive Attack/Unleashed'
p182
tp183
a(S'/home/christof/libs/Downloads/Morphine/2000 - Night'
p184
tp185
a(S"/home/christof/libs/Downloads/THE SEA AND CAKE - DISCOGRAPHY [CHANNEL NEO]/[1995] Glad You're Right [EP]"
p186
tp187
a(S'/home/christof/libs/Downloads/compulsive gamblers/crystal gazing luck amazing'
p188
tp189
a(S'/home/christof/libs/Downloads/Professor Longhair - Crawfish Fiesta (blues)(flac)[rogercc][h33t]'
p190
tp191
a(S"/home/christof/libs/unsorted_music/musik/Musik Backup/Mojo Club/Vol. 8 - Love the one you're with"
p192
tp193
a(S'/home/christof/libs/unsorted_music/musik/Musik Backup/Mojo Club/Vol. 4 - Light my fire'
p194
tp195
a(S'/home/christof/libs/Downloads/Bonobo/Dial _M_ for Monkey'
p196
tp197
a(S'/home/christof/libs/unsorted_music/musik/Musik Backup/Mojo Club/Mojo Club - The Remix Album Pt. 1'
p198
tp199
a(S'/home/christof/libs/unsorted_music/musik/Musik Backup/- The Lost Live Cuts'
p200
tp201
a(S'/home/christof/libs/unsorted_music/musik/Musik Backup/1995 - 100% And Rising'
p202
tp203
a(S'/home/christof/libs/Downloads/The Bamboos - 4 (2010).www.lokotorrents.com'
p204
tp205
a(S"/home/christof/libs/unsorted_music/musik/Musik Backup/Mojo Club/Vol. 2 - For what it's worth"
p206
tp207
a(S'/home/christof/libs/Downloads/Labor Days [Explicit]'
p208
tp209
a(S'/home/christof/libs/Downloads/[!] Matthew Herbert [FLAC]/2005 Matthew Herbert - Plat Du Jour (Accidental [AC19CD])'
p210
tp211
a(S'/home/christof/libs/Downloads/Goat - Commune (2014) FLAC'
p212
tp213
a(S'/home/christof/libs/unsorted_music/musik/Musik Backup/2Pac - All Eyez On Me (Book 1)'
p214
tp215
a(S'/home/christof/libs/Downloads/Nick Drake From CDs/Pink Moon'
p216
tp217
a(S'/home/christof/libs/Downloads/compulsive gamblers/gambling days are over'
p218
tp219
a(S'/home/christof/libs/Downloads/THE SEA AND CAKE - DISCOGRAPHY [CHANNEL NEO]/[1994] The Sea And Cake (Self titled)'
p220
tp221
a(S'/home/christof/libs/Downloads/Bonobo/Solid Steel Presents_ It Came from the S'
p222
tp223
a(S'/home/christof/libs/Downloads/Morphine/1992 - Good'
p224
tp225
a(S'/home/christof/libs/Downloads/THE SEA AND CAKE - DISCOGRAPHY [CHANNEL NEO]/[1997] Two Gentlemen [EP]'
p226
tp227
a(S'/home/christof/libs/Downloads/GusGus/GusGus - Polydistortion [1997]/Bonus CD (part Polydistortion Remixes CD)'
p228
tp229
a(S'/home/christof/libs/Downloads/Morphine/1993 - Cure For Pain'
p230
tp231
a(S'/home/christof/libs/Downloads/compulsive gamblers/compulsive gamblers - outtakes'
p232
tp233
a(S'/home/christof/libs/unsorted_music/musik/Musik Backup/-= 2Pac - Death Row Records Greatest Hits Vol 2 - 2CD - 2003 =-'
p234
tp235
a(S'/home/christof/libs/unsorted_music/musik/Musik Backup/(2000)Tokyo Ska Paradise Orchestra - Full Tension Beaters'
p236
tp237
a(S'/home/christof/libs/unsorted_music/musik/Musik Backup/028 Top10 Progressive House (07.11.2010)'
p238
tp239
a(S'/home/christof/libs/Downloads/The West Coast Pop Art Experimental Band-Vol. 1-3-/The West Coast Pop Art Experimental Band-Vol 1-1967'
p240
tp241
a(S'/home/christof/libs/Downloads/GusGus/GusGus - Arabian Horse [2011]'
p242
tp243
a(S'/home/christof/libs/Downloads/[!] Matthew Herbert [FLAC]/2010 Matthew Herbert - Mahler Symphony X Recomposed (Deutsche Grammophon [27344386])'
p244
tp245
a(S'/home/christof/libs/unsorted_music/musik/Musik Backup/- Monsters In The Closet'
p246
tp247
a(S'/home/christof/libs/unsorted_music/musik/Musik Backup/006 VA - Funky House Classics - Ministry Of Sound'
p248
tp249
a(S'/home/christof/libs/Downloads/Bonobo/One Off Remixes and B-Sides'
p250
tp251
a(S'/home/christof/libs/Downloads/Bonobo/Live Sessions'
p252
tp253
a(S'/home/christof/libs/Downloads/(2003) Songs Ohia - Magnolia Electric Co. [Reissue 2013] [FLAC]'
p254
tp255
a(S'/home/christof/libs/Downloads/[!] Matthew Herbert [FLAC]/2010 Matthew Herbert - One One (Accidental [AC40CD])'
p256
tp257
a(S'/home/christof/libs/unsorted_music/musik/Musik Backup/Mojo Club/Vol. 12 - Feeling Good'
p258
tp259
a(S'/home/christof/libs/unsorted_music/musik/Musik Backup/029 Top10 Techno (12.11.2010)'
p260
tp261
a(S'/home/christof/libs/Downloads/[!] Matthew Herbert [FLAC]/2006 Herbert - Scale (Studio !K7 [!K7202CD])'
p262
tp263
a(S'/home/christof/libs/unsorted_music/musik/Musik Backup/030 Top 10 Electro House (14.11.10)'
p264
tp265
a(S'/home/christof/libs/Downloads/Subheim_approach'
p266
tp267
a(S'/home/christof/libs/unsorted_music/musik/Musik Backup/2006 - Fatboy Slim - The Greatest Hits - Why Try Harder'
p268
tp269
a(S'/home/christof/libs/unsorted_music/musik/Musik Backup/Mojo Club/Vol. 11 - Right Now'
p270
tp271
a(S'/home/christof/libs/Downloads/GusGus/GusGus - David [2004]'
p272
tp273
a(S'/home/christof/libs/Downloads/[!] Matthew Herbert [FLAC]/1998 Herbert With Dani Siciliano \xe2\x80\x8e- Around The House (Phonography [GRAPHCD01])'
p274
tp275
a(S'/home/christof/libs/Downloads/Bonobo/Sweetness'
p276
tp277
a(S'/home/christof/libs/unsorted_music/musik/Musik Backup/Mojo Club/Vol. 9 - Never felt so free'
p278
tp279
a(S"/home/christof/libs/Downloads/Goat/It's Time For Fun"
p280
tp281
a(S'/home/christof/libs/Downloads/Massive Attack/Protection'
p282
tp283
a(S'/home/christof/libs/unsorted_music/musik/Musik Backup/, \xc3\x82\xc2\xa3\xc3\x83\xc2\xaf  \xc3\x83\xc2\x8b\xc3\xa2\xc2\x80\xc2\x94RK%\xc3\x83\xc2\xb5\xc3\x83\xc2\xb0\xc3\x83\xc2\x9fy\xc3\x83\xc2\x99\xc3\xa2\xc2\x80\xc2\xba\xc3\x82\xc2\xbb\xc3\x82\xc2\xb0\xc3\xa2\xc2\x80\xc2\xa6{  \xc3\x85\xc2\xa1o\xc3\x82\xc2\xbc\xc3\x83\xc2\xa8\xc3\x83\xc2\xa6\xc3\x83\xc2\x8a/\xc3\x82\xc2\xa4 \xc3\x83\xc2\x98\xc3\x8b\xc2\x86\xc3\x83\xc2\x962\xc3\x83\xc2\x80\xc3\x82\xc2\xac'
p284
tp285
a(S'/home/christof/libs/Downloads/Nick Drake From CDs/Five Leaves Left'
p286
tp287
a(S'/home/christof/libs/Downloads/THE SEA AND CAKE - DISCOGRAPHY [CHANNEL NEO]/[2012] Runner'
p288
tp289
a(S'/home/christof/libs/unsorted_music/musik/Musik Backup/- Overcast'
p290
tp291
a(S'/home/christof/libs/Downloads/[!] Matthew Herbert [FLAC]/2010 Matthew Herbert - One Club (Accidental [AC44CDD]) - WEB'
p292
tp293
a(S'/home/christof/libs/Downloads/[!] Matthew Herbert [FLAC]/2002 Herbert - Secondhand Sounds Herbert Remixes (Peacefrog Records [PFG021CD])'
p294
S'/home/christof/libs/Downloads/[!] Matthew Herbert [FLAC]/2002 Herbert - Secondhand Sounds Herbert Remixes (Peacefrog Records [PFG021CD])/CD1'
p295
S'/home/christof/libs/Downloads/[!] Matthew Herbert [FLAC]/2002 Herbert - Secondhand Sounds Herbert Remixes (Peacefrog Records [PFG021CD])/CD2'
p296
tp297
a(S'/home/christof/libs/unsorted_music/musik/Musik Backup/2 Pac - San Andreas'
p298
tp299
a(S'/home/christof/libs/Downloads/THE SEA AND CAKE - DISCOGRAPHY [CHANNEL NEO]/[1995] Nassau'
p300
tp301
a(S'/home/christof/libs/Downloads/[!] Matthew Herbert [FLAC]/2001 Radio Boy - The Mechanics Of Destruction (Accidental [AC03]) - WEB'
p302
tp303
atp304
Rp305
s.